; Function Attrs: nofree nounwind uwtable
define range(i64 0, 4294967296) i64 @zfp_encode_partial_block_strided_double_1(ptr noundef readonly captures(none) %0, ptr noundef readonly captures(none) %1, i64 noundef %2, i64 noundef %3) local_unnamed_addr #0 {
  %5 = alloca [4 x double], align 256
  call void @llvm.lifetime.start.p0(i64 32, ptr nonnull %5) #11
  %.not.i = icmp eq i64 %2, 0
  br i1 %.not.i, label %._crit_edge.thread.i, label %.lr.ph.i

.lr.ph.i:                                         ; preds = %4, %.lr.ph.i
  %.012.i = phi i64 [ %8, %.lr.ph.i ], [ 0, %4 ]
  %.0911.i = phi ptr [ %9, %.lr.ph.i ], [ %1, %4 ]
  %6 = load double, ptr %.0911.i, align 8, !tbaa !12
  %7 = getelementptr inbounds nuw double, ptr %5, i64 %.012.i
  store double %6, ptr %7, align 8, !tbaa !12
  %8 = add nuw i64 %.012.i, 1
  %9 = getelementptr inbounds double, ptr %.0911.i, i64 %3
  %exitcond.not.i = icmp eq i64 %8, %2
  br i1 %exitcond.not.i, label %._crit_edge.i, label %.lr.ph.i

._crit_edge.i:                                    ; preds = %.lr.ph.i
  switch i64 %2, label %gather_partial_double_1.exit [
    i64 3, label %16
    i64 1, label %._crit_edge.i.i
    i64 2, label %._crit_edge14.i.i
  ]

._crit_edge14.i.i:                                ; preds = %._crit_edge.i
  %.phi.trans.insert.i.i = getelementptr inbounds nuw i8, ptr %5, i64 8
  %.pre15.i.i = load double, ptr %.phi.trans.insert.i.i, align 8, !tbaa !12
  br label %13

._crit_edge.i.i:                                  ; preds = %._crit_edge.i
  %.pre.i.i = load double, ptr %5, align 256, !tbaa !12
  br label %10

._crit_edge.thread.i:                             ; preds = %4
  store double 0.000000e+00, ptr %5, align 256, !tbaa !12
  br label %10

10:                                               ; preds = %._crit_edge.thread.i, %._crit_edge.i.i
  %11 = phi double [ %.pre.i.i, %._crit_edge.i.i ], [ 0.000000e+00, %._crit_edge.thread.i ]
  %12 = getelementptr inbounds nuw i8, ptr %5, i64 8
  store double %11, ptr %12, align 8, !tbaa !12
  br label %13

13:                                               ; preds = %10, %._crit_edge14.i.i
  %14 = phi double [ %.pre15.i.i, %._crit_edge14.i.i ], [ %11, %10 ]
  %15 = getelementptr inbounds nuw i8, ptr %5, i64 16
  store double %14, ptr %15, align 16, !tbaa !12
  br label %16

16:                                               ; preds = %13, %._crit_edge.i
  %17 = load double, ptr %5, align 256, !tbaa !12
  %18 = getelementptr inbounds nuw i8, ptr %5, i64 24
  store double %17, ptr %18, align 8, !tbaa !12
  br label %gather_partial_double_1.exit

gather_partial_double_1.exit:                     ; preds = %._crit_edge.i, %16
  %19 = call i64 @zfp_encode_block_double_1(ptr noundef %0, ptr noundef nonnull %5)
  call void @llvm.lifetime.end.p0(i64 32, ptr nonnull %5) #11
  ret i64 %19
}